target datalayout = "e-m:e-p270:32:32-p271:32:32-p272:64:64-i64:64-i128:128-f80:128-n8:16:32:64-S128"
target triple = "x86_64-pc-linux-gnu"

%"struct.cv::SimpleBlobDetector::Params" = type <{ float, float, float, [4 x i8], i64, float, i8, i8, i8, i8, float, float, i8, [3 x i8], float, float, i8, [3 x i8], float, float, i8, [3 x i8], float, float, i8, [3 x i8] }>
%"class.cv::SimpleBlobDetectorImpl" = type { %"class.cv::SimpleBlobDetector", %"struct.cv::SimpleBlobDetector::Params", %"class.std::vector" }
%"class.cv::SimpleBlobDetector" = type { %"class.cv::Feature2D" }
%"class.cv::Feature2D" = type { %"class.cv::Algorithm" }
%"class.cv::Algorithm" = type { ptr }
%"class.std::vector" = type { %"struct.std::_Vector_base" }
%"struct.std::_Vector_base" = type { %"struct.std::_Vector_base<std::vector<cv::Point_<int>>, std::allocator<std::vector<cv::Point_<int>>>>::_Vector_impl" }
%"struct.std::_Vector_base<std::vector<cv::Point_<int>>, std::allocator<std::vector<cv::Point_<int>>>>::_Vector_impl" = type { %"struct.std::_Vector_base<std::vector<cv::Point_<int>>, std::allocator<std::vector<cv::Point_<int>>>>::_Vector_impl_data" }
%"struct.std::_Vector_base<std::vector<cv::Point_<int>>, std::allocator<std::vector<cv::Point_<int>>>>::_Vector_impl_data" = type { ptr, ptr, ptr }

; Function Attrs: mustprogress nounwind uwtable
define linkonce_odr hidden void @_ZNSt15__new_allocatorISt6vectorIN2cv6Point_IiEESaIS3_EEEC2Ev(ptr noundef nonnull align 1 dereferenceable(1) %0) unnamed_addr #6 comdat align 2 {
  %2 = alloca ptr, align 8
  store ptr %0, ptr %2, align 8
  ret void
}

; Function Attrs: mustprogress nounwind uwtable
define linkonce_odr hidden void @_ZNSt12_Vector_baseISt6vectorIN2cv6Point_IiEESaIS3_EESaIS5_EE17_Vector_impl_dataC2Ev(ptr noundef nonnull align 8 dereferenceable(24) %0) unnamed_addr #6 comdat align 2 {
  %2 = alloca ptr, align 8
  store ptr %0, ptr %2, align 8
  %3 = load ptr, ptr %2, align 8
  %4 = getelementptr inbounds %"struct.std::_Vector_base<std::vector<cv::Point_<int>>, std::allocator<std::vector<cv::Point_<int>>>>::_Vector_impl_data", ptr %3, i32 0, i32 0
  store ptr null, ptr %4, align 8
  %5 = getelementptr inbounds %"struct.std::_Vector_base<std::vector<cv::Point_<int>>, std::allocator<std::vector<cv::Point_<int>>>>::_Vector_impl_data", ptr %3, i32 0, i32 1
  store ptr null, ptr %5, align 8
  %6 = getelementptr inbounds %"struct.std::_Vector_base<std::vector<cv::Point_<int>>, std::allocator<std::vector<cv::Point_<int>>>>::_Vector_impl_data", ptr %3, i32 0, i32 2
  store ptr null, ptr %6, align 8
  ret void
}

; Function Attrs: mustprogress nounwind uwtable
define linkonce_odr hidden void @_ZNSaISt6vectorIN2cv6Point_IiEESaIS2_EEEC2Ev(ptr noundef nonnull align 1 dereferenceable(1) %0) unnamed_addr #6 comdat align 2 {
  %2 = alloca ptr, align 8
  store ptr %0, ptr %2, align 8
  %3 = load ptr, ptr %2, align 8
  call void @_ZNSt15__new_allocatorISt6vectorIN2cv6Point_IiEESaIS3_EEEC2Ev(ptr noundef nonnull align 1 dereferenceable(1) %3) #3
  ret void
}

; Function Attrs: mustprogress nounwind uwtable
define linkonce_odr hidden void @_ZNSt12_Vector_baseISt6vectorIN2cv6Point_IiEESaIS3_EESaIS5_EE12_Vector_implC2Ev(ptr noundef nonnull align 8 dereferenceable(24) %0) unnamed_addr #6 comdat align 2 {
  %2 = alloca ptr, align 8
  store ptr %0, ptr %2, align 8
  %3 = load ptr, ptr %2, align 8
  call void @_ZNSaISt6vectorIN2cv6Point_IiEESaIS2_EEEC2Ev(ptr noundef nonnull align 1 dereferenceable(1) %3) #3
  call void @_ZNSt12_Vector_baseISt6vectorIN2cv6Point_IiEESaIS3_EESaIS5_EE17_Vector_impl_dataC2Ev(ptr noundef nonnull align 8 dereferenceable(24) %3) #3
  ret void
}

; Function Attrs: mustprogress nounwind uwtable
define linkonce_odr hidden void @_ZNSt12_Vector_baseISt6vectorIN2cv6Point_IiEESaIS3_EESaIS5_EEC2Ev(ptr noundef nonnull align 8 dereferenceable(24) %0) unnamed_addr #6 comdat align 2 {
  %2 = alloca ptr, align 8
  store ptr %0, ptr %2, align 8
  %3 = load ptr, ptr %2, align 8
  %4 = getelementptr inbounds %"struct.std::_Vector_base", ptr %3, i32 0, i32 0
  call void @_ZNSt12_Vector_baseISt6vectorIN2cv6Point_IiEESaIS3_EESaIS5_EE12_Vector_implC2Ev(ptr noundef nonnull align 8 dereferenceable(24) %4) #3
  ret void
}

; Function Attrs: mustprogress nounwind uwtable
define linkonce_odr hidden void @_ZN2cv9Feature2DC2Ev(ptr noundef nonnull align 8 dereferenceable(8) %0, ptr noundef %1) unnamed_addr #6 comdat align 2 {
  %3 = alloca ptr, align 8
  %4 = alloca ptr, align 8
  store ptr %0, ptr %3, align 8
  store ptr %1, ptr %4, align 8
  %5 = load ptr, ptr %3, align 8
  %6 = load ptr, ptr %4, align 8
  %7 = load ptr, ptr %6, align 8
  store ptr %7, ptr %5, align 8
  %8 = getelementptr inbounds ptr, ptr %6, i64 1
  %9 = load ptr, ptr %8, align 8
  %10 = load ptr, ptr %5, align 8
  %11 = getelementptr i8, ptr %10, i64 -80
  %12 = load i64, ptr %11, align 8
  %13 = getelementptr inbounds i8, ptr %5, i64 %12
  store ptr %9, ptr %13, align 8
  ret void
}

; Function Attrs: mustprogress nounwind uwtable
define linkonce_odr hidden void @_ZNSt6vectorIS_IN2cv6Point_IiEESaIS2_EESaIS4_EEC2Ev(ptr noundef nonnull align 8 dereferenceable(24) %0) unnamed_addr #6 comdat align 2 {
  %2 = alloca ptr, align 8
  store ptr %0, ptr %2, align 8
  %3 = load ptr, ptr %2, align 8
  call void @_ZNSt12_Vector_baseISt6vectorIN2cv6Point_IiEESaIS3_EESaIS5_EEC2Ev(ptr noundef nonnull align 8 dereferenceable(24) %3) #3
  ret void
}

; Function Attrs: mustprogress uwtable
define linkonce_odr hidden void @_ZN2cv18SimpleBlobDetectorC2Ev(ptr noundef nonnull align 8 dereferenceable(8) %0, ptr noundef %1) unnamed_addr #4 comdat align 2 {
  %3 = alloca ptr, align 8
  %4 = alloca ptr, align 8
  store ptr %0, ptr %3, align 8
  store ptr %1, ptr %4, align 8
  %5 = load ptr, ptr %3, align 8
  %6 = load ptr, ptr %4, align 8
  %7 = getelementptr inbounds ptr, ptr %6, i64 1
  call void @_ZN2cv9Feature2DC2Ev(ptr noundef nonnull align 8 dereferenceable(8) %5, ptr noundef %7)
  %8 = load ptr, ptr %6, align 8
  store ptr %8, ptr %5, align 8
  %9 = getelementptr inbounds ptr, ptr %6, i64 3
  %10 = load ptr, ptr %9, align 8
  %11 = load ptr, ptr %5, align 8
  %12 = getelementptr i8, ptr %11, i64 -80
  %13 = load i64, ptr %12, align 8
  %14 = getelementptr inbounds i8, ptr %5, i64 %13
  store ptr %10, ptr %14, align 8
  ret void
}

; Function Attrs: mustprogress uwtable
define void @_ZN2cv22SimpleBlobDetectorImplC2ERKNS_18SimpleBlobDetector6ParamsE(ptr noundef nonnull align 8 dereferenceable(112) %0, ptr noundef %1, ptr noundef nonnull align 8 dereferenceable(77) %2) unnamed_addr #4 align 2 {
  %4 = alloca ptr, align 8
  %5 = alloca ptr, align 8
  %6 = alloca ptr, align 8
  store ptr %0, ptr %4, align 8
  store ptr %1, ptr %5, align 8
  store ptr %2, ptr %6, align 8
  %7 = load ptr, ptr %4, align 8
  %8 = load ptr, ptr %5, align 8
  %9 = getelementptr inbounds ptr, ptr %8, i64 1
  call void @_ZN2cv18SimpleBlobDetectorC2Ev(ptr noundef nonnull align 8 dereferenceable(8) %7, ptr noundef %9)
  %10 = load ptr, ptr %8, align 8
  store ptr %10, ptr %7, align 8
  %11 = getelementptr inbounds ptr, ptr %8, i64 5
  %12 = load ptr, ptr %11, align 8
  %13 = load ptr, ptr %7, align 8
  %14 = getelementptr i8, ptr %13, i64 -80
  %15 = load i64, ptr %14, align 8
  %16 = getelementptr inbounds i8, ptr %7, i64 %15
  store ptr %12, ptr %16, align 8
  %17 = getelementptr inbounds %"class.cv::SimpleBlobDetectorImpl", ptr %7, i32 0, i32 1
  %18 = load ptr, ptr %6, align 8
  call void @llvm.memcpy.p0.p0.i64(ptr align 8 %17, ptr align 8 %18, i64 80, i1 false)
  %19 = getelementptr inbounds %"class.cv::SimpleBlobDetectorImpl", ptr %7, i32 0, i32 2
  call void @_ZNSt6vectorIS_IN2cv6Point_IiEESaIS2_EESaIS4_EEC2Ev(ptr noundef nonnull align 8 dereferenceable(24) %19) #3
  ret void
}